target datalayout = "e-m:e-p270:32:32-p271:32:32-p272:64:64-i64:64-i128:128-f80:128-n8:16:32:64-S128"
target triple = "x86_64-pc-linux-gnu"

%union.EX_STYPE = type { ptr }

@stderr = external global ptr, align 8
@.str.18 = private unnamed_addr constant [2 x i8] c"\0A\00", align 1
@.str.65 = private unnamed_addr constant [8 x i8] c"%s %s (\00", align 1
@.str.66 = private unnamed_addr constant [6 x i8] c"token\00", align 1
@.str.67 = private unnamed_addr constant [6 x i8] c"nterm\00", align 1
@.str.68 = private unnamed_addr constant [2 x i8] c")\00", align 1
@.str.69 = private unnamed_addr constant [38 x i8] c"Reducing stack by rule %d (line %d):\0A\00", align 1
@.str.70 = private unnamed_addr constant [10 x i8] c"   $%d = \00", align 1

; Function Attrs: nounwind uwtable
define internal void @yy_symbol_value_print(ptr noundef %0, i32 noundef %1, ptr noundef %2) #0 {
  %4 = alloca ptr, align 8
  %5 = alloca i32, align 4
  %6 = alloca ptr, align 8
  %7 = alloca ptr, align 8
  store ptr %0, ptr %4, align 8
  store i32 %1, ptr %5, align 4
  store ptr %2, ptr %6, align 8
  %8 = load ptr, ptr %4, align 8
  store ptr %8, ptr %7, align 8
  %9 = load ptr, ptr %6, align 8
  %10 = icmp ne ptr %9, null
  br i1 %10, label %12, label %11

11:                                               ; preds = %3
  br label %13

12:                                               ; preds = %3
  br label %13

13:                                               ; preds = %12, %11
  ret void
}

; Function Attrs: nounwind uwtable
define internal ptr @yysymbol_name(i32 noundef %0) #0 {
  %2 = alloca i32, align 4
  store i32 %0, ptr %2, align 4
  %3 = load i32, ptr %2, align 4
  %4 = sext i32 %3 to i64
  %5 = getelementptr inbounds [152 x ptr], ptr @yytname, i64 0, i64 %4
  %6 = load ptr, ptr %5, align 8
  ret ptr %6
}

; Function Attrs: nounwind uwtable
define internal void @yy_symbol_print(ptr noundef %0, i32 noundef %1, ptr noundef %2) #0 {
  %4 = alloca ptr, align 8
  %5 = alloca i32, align 4
  %6 = alloca ptr, align 8
  store ptr %0, ptr %4, align 8
  store i32 %1, ptr %5, align 4
  store ptr %2, ptr %6, align 8
  %7 = load ptr, ptr %4, align 8
  %8 = load i32, ptr %5, align 4
  %9 = icmp slt i32 %8, 107
  %10 = select i1 %9, ptr @.str.66, ptr @.str.67
  %11 = load i32, ptr %5, align 4
  %12 = call ptr @yysymbol_name(i32 noundef %11)
  %13 = call i32 (ptr, ptr, ...) @fprintf(ptr noundef %7, ptr noundef @.str.65, ptr noundef %10, ptr noundef %12) #12
  %14 = load ptr, ptr %4, align 8
  %15 = load i32, ptr %5, align 4
  %16 = load ptr, ptr %6, align 8
  call void @yy_symbol_value_print(ptr noundef %14, i32 noundef %15, ptr noundef %16)
  %17 = load ptr, ptr %4, align 8
  %18 = call i32 (ptr, ptr, ...) @fprintf(ptr noundef %17, ptr noundef @.str.68) #12
  ret void
}

; Function Attrs: nounwind uwtable
define internal void @yy_reduce_print(ptr noundef %0, ptr noundef %1, i32 noundef %2) #0 {
  %4 = alloca ptr, align 8
  %5 = alloca ptr, align 8
  %6 = alloca i32, align 4
  %7 = alloca i32, align 4
  %8 = alloca i32, align 4
  %9 = alloca i32, align 4
  store ptr %0, ptr %4, align 8
  store ptr %1, ptr %5, align 8
  store i32 %2, ptr %6, align 4
  %10 = load i32, ptr %6, align 4
  %11 = sext i32 %10 to i64
  %12 = getelementptr inbounds [143 x i16], ptr @yyrline, i64 0, i64 %11
  %13 = load i16, ptr %12, align 2
  %14 = sext i16 %13 to i32
  store i32 %14, ptr %7, align 4
  %15 = load i32, ptr %6, align 4
  %16 = sext i32 %15 to i64
  %17 = getelementptr inbounds [143 x i8], ptr @yyr2, i64 0, i64 %16
  %18 = load i8, ptr %17, align 1
  %19 = sext i8 %18 to i32
  store i32 %19, ptr %8, align 4
  %20 = load ptr, ptr @stderr, align 8
  %21 = load i32, ptr %6, align 4
  %22 = sub nsw i32 %21, 1
  %23 = load i32, ptr %7, align 4
  %24 = call i32 (ptr, ptr, ...) @fprintf(ptr noundef %20, ptr noundef @.str.69, i32 noundef %22, i32 noundef %23) #12
  store i32 0, ptr %9, align 4
  br label %25

25:                                               ; preds = %57, %3
  %26 = load i32, ptr %9, align 4
  %27 = load i32, ptr %8, align 4
  %28 = icmp slt i32 %26, %27
  br i1 %28, label %29, label %60

29:                                               ; preds = %25
  %30 = load ptr, ptr @stderr, align 8
  %31 = load i32, ptr %9, align 4
  %32 = add nsw i32 %31, 1
  %33 = call i32 (ptr, ptr, ...) @fprintf(ptr noundef %30, ptr noundef @.str.70, i32 noundef %32) #12
  %34 = load ptr, ptr @stderr, align 8
  %35 = load ptr, ptr %4, align 8
  %36 = load i32, ptr %9, align 4
  %37 = add nsw i32 %36, 1
  %38 = load i32, ptr %8, align 4
  %39 = sub nsw i32 %37, %38
  %40 = sext i32 %39 to i64
  %41 = getelementptr inbounds i16, ptr %35, i64 %40
  %42 = load i16, ptr %41, align 2
  %43 = sext i16 %42 to i32
  %44 = sext i32 %43 to i64
  %45 = getelementptr inbounds [286 x i8], ptr @yystos, i64 0, i64 %44
  %46 = load i8, ptr %45, align 1
  %47 = zext i8 %46 to i32
  %48 = load ptr, ptr %5, align 8
  %49 = load i32, ptr %9, align 4
  %50 = add nsw i32 %49, 1
  %51 = load i32, ptr %8, align 4
  %52 = sub nsw i32 %50, %51
  %53 = sext i32 %52 to i64
  %54 = getelementptr inbounds %union.EX_STYPE, ptr %48, i64 %53
  call void @yy_symbol_print(ptr noundef %34, i32 noundef %47, ptr noundef %54)
  %55 = load ptr, ptr @stderr, align 8
  %56 = call i32 (ptr, ptr, ...) @fprintf(ptr noundef %55, ptr noundef @.str.18) #12
  br label %57

57:                                               ; preds = %29
  %58 = load i32, ptr %9, align 4
  %59 = add nsw i32 %58, 1
  store i32 %59, ptr %9, align 4
  br label %25

60:                                               ; preds = %25
  ret void
}