; Function Attrs: cold nofree nounwind uwtable
define internal fastcc void @yy_reduce_print(ptr noundef nonnull readonly captures(none) %0, i32 noundef range(i32 0, 32769) %1) unnamed_addr #11 {
  %3 = zext nneg i32 %1 to i64
  %4 = getelementptr inbounds nuw [143 x i16], ptr @yyrline, i64 0, i64 %3
  %5 = load i16, ptr %4, align 2
  %6 = sext i16 %5 to i32
  %7 = getelementptr inbounds nuw [143 x i8], ptr @yyr2, i64 0, i64 %3
  %8 = load i8, ptr %7, align 1
  %9 = load ptr, ptr @stderr, align 8
  %10 = add nsw i32 %1, -1
  %11 = tail call i32 (ptr, ptr, ...) @fprintf(ptr noundef %9, ptr noundef nonnull @.str.69, i32 noundef %10, i32 noundef %6) #25
  %12 = icmp sgt i8 %8, 0
  br i1 %12, label %.lr.ph.preheader, label %._crit_edge

.lr.ph.preheader:                                 ; preds = %2
  %13 = zext nneg i8 %8 to i64
  %wide.trip.count = zext nneg i8 %8 to i64
  br label %.lr.ph

.lr.ph:                                           ; preds = %.lr.ph.preheader, %.lr.ph
  %indvars.iv = phi i64 [ 0, %.lr.ph.preheader ], [ %indvars.iv.next, %.lr.ph ]
  %14 = load ptr, ptr @stderr, align 8
  %indvars.iv.next = add nuw nsw i64 %indvars.iv, 1
  %15 = trunc nuw nsw i64 %indvars.iv.next to i32
  %16 = tail call i32 (ptr, ptr, ...) @fprintf(ptr noundef %14, ptr noundef nonnull @.str.70, i32 noundef %15) #25
  %17 = load ptr, ptr @stderr, align 8
  %18 = sub nsw i64 %indvars.iv.next, %13
  %19 = getelementptr inbounds i16, ptr %0, i64 %18
  %20 = load i16, ptr %19, align 2
  %21 = sext i16 %20 to i64
  %22 = getelementptr inbounds [286 x i8], ptr @yystos, i64 0, i64 %21
  %23 = load i8, ptr %22, align 1
  %24 = icmp ult i8 %23, 107
  %25 = select i1 %24, ptr @.str.66, ptr @.str.67
  %26 = zext i8 %23 to i64
  %27 = getelementptr inbounds nuw [152 x ptr], ptr @yytname, i64 0, i64 %26
  %28 = load ptr, ptr %27, align 8
  %29 = tail call i32 (ptr, ptr, ...) @fprintf(ptr noundef %17, ptr noundef nonnull @.str.65, ptr noundef nonnull %25, ptr noundef %28) #25
  %fputc.i = tail call i32 @fputc(i32 41, ptr %17)
  %30 = load ptr, ptr @stderr, align 8
  %fputc = tail call i32 @fputc(i32 10, ptr %30)
  %exitcond.not = icmp eq i64 %indvars.iv.next, %wide.trip.count
  br i1 %exitcond.not, label %._crit_edge, label %.lr.ph

._crit_edge:                                      ; preds = %.lr.ph, %2
  ret void
}